target datalayout = "e-m:e-p270:32:32-p271:32:32-p272:64:64-i64:64-i128:128-f80:128-n8:16:32:64-S128"
target triple = "x86_64-pc-linux-gnu"

%struct.commit_name = type { %struct.hashmap_entry, %struct.object_id, ptr, i8, %struct.object_id, ptr }
%struct.hashmap_entry = type { ptr, i32 }
%struct.object_id = type { [32 x i8], i32 }
%struct.tag = type { %struct.object, ptr, ptr, i64 }
%struct.object = type { i32, %struct.object_id }

@all = internal global i32 0, align 4
@the_repository = external global ptr, align 8
@.str.82 = private unnamed_addr constant [31 x i8] c"annotated tag %s not available\00", align 1
@.str.83 = private unnamed_addr constant [37 x i8] c"tag '%s' is externally known as '%s'\00", align 1
@.str.84 = private unnamed_addr constant [6 x i8] c"tags/\00", align 1

; Function Attrs: inlinehint nounwind uwtable
define internal void @strbuf_addstr(ptr noundef %0, ptr noundef %1) #4 {
  %3 = alloca ptr, align 8
  %4 = alloca ptr, align 8
  store ptr %0, ptr %3, align 8, !tbaa !104
  store ptr %1, ptr %4, align 8, !tbaa !11
  %5 = load ptr, ptr %3, align 8, !tbaa !104
  %6 = load ptr, ptr %4, align 8, !tbaa !11
  %7 = load ptr, ptr %4, align 8, !tbaa !11
  %8 = call i64 @strlen(ptr noundef %7) #11
  call void @strbuf_add(ptr noundef %5, ptr noundef %6, i64 noundef %8)
  ret void
}

; Function Attrs: nounwind uwtable
define internal void @append_name(ptr noundef %0, ptr noundef %1) #0 {
  %3 = alloca ptr, align 8
  %4 = alloca ptr, align 8
  store ptr %0, ptr %3, align 8, !tbaa !72
  store ptr %1, ptr %4, align 8, !tbaa !104
  %5 = load ptr, ptr %3, align 8, !tbaa !72
  %6 = getelementptr inbounds nuw %struct.commit_name, ptr %5, i32 0, i32 3
  %7 = load i8, ptr %6, align 8
  %8 = and i8 %7, 3
  %9 = zext i8 %8 to i32
  %10 = icmp eq i32 %9, 2
  br i1 %10, label %11, label %39

11:                                               ; preds = %2
  %12 = load ptr, ptr %3, align 8, !tbaa !72
  %13 = getelementptr inbounds nuw %struct.commit_name, ptr %12, i32 0, i32 2
  %14 = load ptr, ptr %13, align 8, !tbaa !95
  %15 = icmp ne ptr %14, null
  br i1 %15, label %39, label %16

16:                                               ; preds = %11
  %17 = load ptr, ptr @the_repository, align 8, !tbaa !13
  %18 = load ptr, ptr %3, align 8, !tbaa !72
  %19 = getelementptr inbounds nuw %struct.commit_name, ptr %18, i32 0, i32 4
  %20 = call ptr @lookup_tag(ptr noundef %17, ptr noundef %19)
  %21 = load ptr, ptr %3, align 8, !tbaa !72
  %22 = getelementptr inbounds nuw %struct.commit_name, ptr %21, i32 0, i32 2
  store ptr %20, ptr %22, align 8, !tbaa !95
  %23 = load ptr, ptr %3, align 8, !tbaa !72
  %24 = getelementptr inbounds nuw %struct.commit_name, ptr %23, i32 0, i32 2
  %25 = load ptr, ptr %24, align 8, !tbaa !95
  %26 = icmp ne ptr %25, null
  br i1 %26, label %27, label %33

27:                                               ; preds = %16
  %28 = load ptr, ptr %3, align 8, !tbaa !72
  %29 = getelementptr inbounds nuw %struct.commit_name, ptr %28, i32 0, i32 2
  %30 = load ptr, ptr %29, align 8, !tbaa !95
  %31 = call i32 @parse_tag(ptr noundef %30)
  %32 = icmp ne i32 %31, 0
  br i1 %32, label %33, label %38

33:                                               ; preds = %27, %16
  %34 = call ptr @_(ptr noundef @.str.82)
  %35 = load ptr, ptr %3, align 8, !tbaa !72
  %36 = getelementptr inbounds nuw %struct.commit_name, ptr %35, i32 0, i32 5
  %37 = load ptr, ptr %36, align 8, !tbaa !92
  call void (ptr, ...) @die(ptr noundef %34, ptr noundef %37) #10
  unreachable

38:                                               ; preds = %27
  br label %39

39:                                               ; preds = %38, %11, %2
  %40 = load ptr, ptr %3, align 8, !tbaa !72
  %41 = getelementptr inbounds nuw %struct.commit_name, ptr %40, i32 0, i32 2
  %42 = load ptr, ptr %41, align 8, !tbaa !95
  %43 = icmp ne ptr %42, null
  br i1 %43, label %44, label %94

44:                                               ; preds = %39
  %45 = load ptr, ptr %3, align 8, !tbaa !72
  %46 = getelementptr inbounds nuw %struct.commit_name, ptr %45, i32 0, i32 3
  %47 = load i8, ptr %46, align 8
  %48 = lshr i8 %47, 2
  %49 = and i8 %48, 1
  %50 = zext i8 %49 to i32
  %51 = icmp ne i32 %50, 0
  br i1 %51, label %94, label %52

52:                                               ; preds = %44
  %53 = load ptr, ptr %3, align 8, !tbaa !72
  %54 = getelementptr inbounds nuw %struct.commit_name, ptr %53, i32 0, i32 2
  %55 = load ptr, ptr %54, align 8, !tbaa !95
  %56 = getelementptr inbounds nuw %struct.tag, ptr %55, i32 0, i32 2
  %57 = load ptr, ptr %56, align 8, !tbaa !135
  %58 = load i32, ptr @all, align 4, !tbaa !4
  %59 = icmp ne i32 %58, 0
  br i1 %59, label %60, label %65

60:                                               ; preds = %52
  %61 = load ptr, ptr %3, align 8, !tbaa !72
  %62 = getelementptr inbounds nuw %struct.commit_name, ptr %61, i32 0, i32 5
  %63 = load ptr, ptr %62, align 8, !tbaa !92
  %64 = getelementptr inbounds i8, ptr %63, i64 5
  br label %69

65:                                               ; preds = %52
  %66 = load ptr, ptr %3, align 8, !tbaa !72
  %67 = getelementptr inbounds nuw %struct.commit_name, ptr %66, i32 0, i32 5
  %68 = load ptr, ptr %67, align 8, !tbaa !92
  br label %69

69:                                               ; preds = %65, %60
  %70 = phi ptr [ %64, %60 ], [ %68, %65 ]
  %71 = call i32 @strcmp(ptr noundef %57, ptr noundef %70) #11
  %72 = icmp ne i32 %71, 0
  br i1 %72, label %73, label %88

73:                                               ; preds = %69
  %74 = call ptr @_(ptr noundef @.str.83)
  %75 = load ptr, ptr %3, align 8, !tbaa !72
  %76 = getelementptr inbounds nuw %struct.commit_name, ptr %75, i32 0, i32 5
  %77 = load ptr, ptr %76, align 8, !tbaa !92
  %78 = load ptr, ptr %3, align 8, !tbaa !72
  %79 = getelementptr inbounds nuw %struct.commit_name, ptr %78, i32 0, i32 2
  %80 = load ptr, ptr %79, align 8, !tbaa !95
  %81 = getelementptr inbounds nuw %struct.tag, ptr %80, i32 0, i32 2
  %82 = load ptr, ptr %81, align 8, !tbaa !135
  call void (ptr, ...) @warning(ptr noundef %74, ptr noundef %77, ptr noundef %82)
  %83 = load ptr, ptr %3, align 8, !tbaa !72
  %84 = getelementptr inbounds nuw %struct.commit_name, ptr %83, i32 0, i32 3
  %85 = load i8, ptr %84, align 8
  %86 = and i8 %85, -9
  %87 = or i8 %86, 8
  store i8 %87, ptr %84, align 8
  br label %88

88:                                               ; preds = %73, %69
  %89 = load ptr, ptr %3, align 8, !tbaa !72
  %90 = getelementptr inbounds nuw %struct.commit_name, ptr %89, i32 0, i32 3
  %91 = load i8, ptr %90, align 8
  %92 = and i8 %91, -5
  %93 = or i8 %92, 4
  store i8 %93, ptr %90, align 8
  br label %94

94:                                               ; preds = %88, %44, %39
  %95 = load ptr, ptr %3, align 8, !tbaa !72
  %96 = getelementptr inbounds nuw %struct.commit_name, ptr %95, i32 0, i32 2
  %97 = load ptr, ptr %96, align 8, !tbaa !95
  %98 = icmp ne ptr %97, null
  br i1 %98, label %99, label %111

99:                                               ; preds = %94
  %100 = load i32, ptr @all, align 4, !tbaa !4
  %101 = icmp ne i32 %100, 0
  br i1 %101, label %102, label %104

102:                                              ; preds = %99
  %103 = load ptr, ptr %4, align 8, !tbaa !104
  call void @strbuf_addstr(ptr noundef %103, ptr noundef @.str.84)
  br label %104

104:                                              ; preds = %102, %99
  %105 = load ptr, ptr %4, align 8, !tbaa !104
  %106 = load ptr, ptr %3, align 8, !tbaa !72
  %107 = getelementptr inbounds nuw %struct.commit_name, ptr %106, i32 0, i32 2
  %108 = load ptr, ptr %107, align 8, !tbaa !95
  %109 = getelementptr inbounds nuw %struct.tag, ptr %108, i32 0, i32 2
  %110 = load ptr, ptr %109, align 8, !tbaa !135
  call void @strbuf_addstr(ptr noundef %105, ptr noundef %110)
  br label %116

111:                                              ; preds = %94
  %112 = load ptr, ptr %4, align 8, !tbaa !104
  %113 = load ptr, ptr %3, align 8, !tbaa !72
  %114 = getelementptr inbounds nuw %struct.commit_name, ptr %113, i32 0, i32 5
  %115 = load ptr, ptr %114, align 8, !tbaa !92
  call void @strbuf_addstr(ptr noundef %112, ptr noundef %115)
  br label %116

116:                                              ; preds = %111, %104
  ret void
}