; Function Attrs: nounwind uwtable
define internal fastcc void @append_name(ptr noundef %0, ptr noundef %1) unnamed_addr #0 {
  %3 = getelementptr inbounds nuw i8, ptr %0, i64 64
  %4 = load i8, ptr %3, align 8
  %5 = and i8 %4, 3
  %6 = icmp eq i8 %5, 2
  br i1 %6, label %7, label %20

7:                                                ; preds = %2
  %8 = getelementptr inbounds nuw i8, ptr %0, i64 56
  %9 = load ptr, ptr %8, align 8, !tbaa !65
  %.not = icmp eq ptr %9, null
  br i1 %.not, label %10, label %20

10:                                               ; preds = %7
  %11 = load ptr, ptr @the_repository, align 8, !tbaa !21
  %12 = getelementptr inbounds nuw i8, ptr %0, i64 68
  %13 = tail call ptr @lookup_tag(ptr noundef %11, ptr noundef nonnull %12) #16
  store ptr %13, ptr %8, align 8, !tbaa !65
  %.not23 = icmp eq ptr %13, null
  br i1 %.not23, label %16, label %14

14:                                               ; preds = %10
  %15 = tail call i32 @parse_tag(ptr noundef nonnull %13) #16
  %.not24 = icmp eq i32 %15, 0
  br i1 %.not24, label %20, label %16

16:                                               ; preds = %14, %10
  %17 = tail call fastcc ptr @_(ptr noundef nonnull @.str.82)
  %18 = getelementptr inbounds nuw i8, ptr %0, i64 104
  %19 = load ptr, ptr %18, align 8, !tbaa !72
  tail call void (ptr, ...) @die(ptr noundef %17, ptr noundef %19) #17
  unreachable

20:                                               ; preds = %14, %7, %2
  %21 = getelementptr inbounds nuw i8, ptr %0, i64 56
  %22 = load ptr, ptr %21, align 8, !tbaa !65
  %.not25 = icmp eq ptr %22, null
  br i1 %.not25, label %.thread, label %23

23:                                               ; preds = %20
  %24 = load i8, ptr %3, align 8
  %25 = and i8 %24, 4
  %.not26 = icmp eq i8 %25, 0
  br i1 %.not26, label %26, label %.thread38

26:                                               ; preds = %23
  %27 = getelementptr inbounds nuw i8, ptr %22, i64 48
  %28 = load ptr, ptr %27, align 8, !tbaa !113
  %29 = load i32, ptr @all, align 4, !tbaa !4
  %.not27 = icmp eq i32 %29, 0
  %30 = getelementptr inbounds nuw i8, ptr %0, i64 104
  %31 = load ptr, ptr %30, align 8, !tbaa !72
  %.idx = select i1 %.not27, i64 0, i64 5
  %32 = getelementptr inbounds nuw i8, ptr %31, i64 %.idx
  %33 = tail call i32 @strcmp(ptr noundef nonnull dereferenceable(1) %28, ptr noundef nonnull dereferenceable(1) %32) #19
  %.not28 = icmp eq i32 %33, 0
  br i1 %.not28, label %.thread42, label %35

.thread42:                                        ; preds = %26
  %34 = or disjoint i8 %24, 4
  store i8 %34, ptr %3, align 8
  br label %.thread38

35:                                               ; preds = %26
  %36 = load i32, ptr @git_gettext_enabled, align 4, !tbaa !4
  %.not4.i = icmp eq i32 %36, 0
  br i1 %.not4.i, label %39, label %37

37:                                               ; preds = %35
  %38 = tail call ptr @dcgettext(ptr noundef null, ptr noundef nonnull @.str.83, i32 noundef 5) #16
  %.phi.trans.insert = getelementptr inbounds nuw i8, ptr %0, i64 104
  %.pre = load ptr, ptr %.phi.trans.insert, align 8, !tbaa !72
  %.pre32 = load ptr, ptr %21, align 8, !tbaa !65
  %.phi.trans.insert33 = getelementptr inbounds nuw i8, ptr %.pre32, i64 48
  %.pre34 = load ptr, ptr %.phi.trans.insert33, align 8, !tbaa !113
  br label %39

39:                                               ; preds = %37, %35
  %40 = phi ptr [ %.pre34, %37 ], [ %28, %35 ]
  %41 = phi ptr [ %.pre, %37 ], [ %31, %35 ]
  %.0.i = phi ptr [ %38, %37 ], [ @.str.83, %35 ]
  tail call void (ptr, ...) @warning(ptr noundef %.0.i, ptr noundef %41, ptr noundef %40) #16
  %42 = load i8, ptr %3, align 8
  %.pr.pre.pre = load ptr, ptr %21, align 8, !tbaa !65
  %43 = or i8 %42, 12
  store i8 %43, ptr %3, align 8
  %.not29 = icmp eq ptr %.pr.pre.pre, null
  br i1 %.not29, label %.thread, label %.thread38

.thread38:                                        ; preds = %23, %.thread42, %39
  %.pr41 = phi ptr [ %.pr.pre.pre, %39 ], [ %22, %.thread42 ], [ %22, %23 ]
  %44 = load i32, ptr @all, align 4, !tbaa !4
  %.not30 = icmp eq i32 %44, 0
  br i1 %.not30, label %46, label %45

45:                                               ; preds = %.thread38
  tail call void @strbuf_add(ptr noundef %1, ptr noundef nonnull @.str.84, i64 noundef 5) #16
  %.pre36 = load ptr, ptr %21, align 8, !tbaa !65
  br label %46

46:                                               ; preds = %45, %.thread38
  %47 = phi ptr [ %.pre36, %45 ], [ %.pr41, %.thread38 ]
  %48 = getelementptr inbounds nuw i8, ptr %47, i64 48
  br label %50

.thread:                                          ; preds = %20, %39
  %49 = getelementptr inbounds nuw i8, ptr %0, i64 104
  br label %50

50:                                               ; preds = %.thread, %46
  %.sink46.in = phi ptr [ %49, %.thread ], [ %48, %46 ]
  %.sink46 = load ptr, ptr %.sink46.in, align 8, !tbaa !33
  %51 = tail call i64 @strlen(ptr noundef nonnull dereferenceable(1) %.sink46) #19
  tail call void @strbuf_add(ptr noundef %1, ptr noundef nonnull %.sink46, i64 noundef %51) #16
  ret void
}